target datalayout = "e-m:e-p270:32:32-p271:32:32-p272:64:64-i64:64-i128:128-f80:128-n8:16:32:64-S128"
target triple = "x86_64-pc-linux-gnu"

; Function Attrs: nounwind uwtable
define internal i32 @hwloc_linux_membind_mask_from_nodeset(ptr noundef %0, ptr noundef %1, ptr noundef %2, ptr noundef %3) #0 {
  %5 = alloca i32, align 4
  %6 = alloca ptr, align 8
  %7 = alloca ptr, align 8
  %8 = alloca ptr, align 8
  %9 = alloca ptr, align 8
  %10 = alloca i32, align 4
  %11 = alloca ptr, align 8
  %12 = alloca i32, align 4
  %13 = alloca ptr, align 8
  %14 = alloca i32, align 4
  store ptr %0, ptr %6, align 8, !tbaa !19
  store ptr %1, ptr %7, align 8, !tbaa !8
  store ptr %2, ptr %8, align 8, !tbaa !91
  store ptr %3, ptr %9, align 8, !tbaa !120
  call void @llvm.lifetime.start.p0(i64 4, ptr %10) #14
  store i32 0, ptr %10, align 4, !tbaa !10
  call void @llvm.lifetime.start.p0(i64 8, ptr %11) #14
  call void @llvm.lifetime.start.p0(i64 4, ptr %12) #14
  call void @llvm.lifetime.start.p0(i64 8, ptr %13) #14
  store ptr null, ptr %13, align 8, !tbaa !8
  %15 = load ptr, ptr %7, align 8, !tbaa !8
  %16 = call i32 @hwloc_bitmap_isfull(ptr noundef %15) #17
  %17 = icmp ne i32 %16, 0
  br i1 %17, label %18, label %23

18:                                               ; preds = %4
  %19 = call noalias ptr @hwloc_bitmap_alloc()
  store ptr %19, ptr %13, align 8, !tbaa !8
  %20 = load ptr, ptr %13, align 8, !tbaa !8
  %21 = call i32 @hwloc_bitmap_only(ptr noundef %20, i32 noundef 0)
  %22 = load ptr, ptr %13, align 8, !tbaa !8
  store ptr %22, ptr %7, align 8, !tbaa !8
  br label %23

23:                                               ; preds = %18, %4
  %24 = load ptr, ptr %7, align 8, !tbaa !8
  %25 = call i32 @hwloc_bitmap_last(ptr noundef %24) #17
  store i32 %25, ptr %10, align 4, !tbaa !10
  %26 = load i32, ptr %10, align 4, !tbaa !10
  %27 = icmp eq i32 %26, -1
  br i1 %27, label %28, label %29

28:                                               ; preds = %23
  store i32 0, ptr %10, align 4, !tbaa !10
  br label %29

29:                                               ; preds = %28, %23
  %30 = load i32, ptr %10, align 4, !tbaa !10
  %31 = add i32 %30, 1
  %32 = add i32 %31, 64
  %33 = sub i32 %32, 1
  %34 = and i32 %33, -64
  store i32 %34, ptr %10, align 4, !tbaa !10
  %35 = load i32, ptr %10, align 4, !tbaa !10
  %36 = udiv i32 %35, 64
  %37 = zext i32 %36 to i64
  %38 = call noalias ptr @calloc(i64 noundef %37, i64 noundef 8) #19
  store ptr %38, ptr %11, align 8, !tbaa !14
  %39 = load ptr, ptr %11, align 8, !tbaa !14
  %40 = icmp ne ptr %39, null
  br i1 %40, label %44, label %41

41:                                               ; preds = %29
  %42 = load ptr, ptr %13, align 8, !tbaa !8
  call void @hwloc_bitmap_free(ptr noundef %42)
  %43 = call ptr @__errno_location() #18
  store i32 12, ptr %43, align 4, !tbaa !10
  store i32 -1, ptr %5, align 4
  store i32 1, ptr %14, align 4
  br label %71

44:                                               ; preds = %29
  store i32 0, ptr %12, align 4, !tbaa !10
  br label %45

45:                                               ; preds = %58, %44
  %46 = load i32, ptr %12, align 4, !tbaa !10
  %47 = load i32, ptr %10, align 4, !tbaa !10
  %48 = udiv i32 %47, 64
  %49 = icmp ult i32 %46, %48
  br i1 %49, label %50, label %61

50:                                               ; preds = %45
  %51 = load ptr, ptr %7, align 8, !tbaa !8
  %52 = load i32, ptr %12, align 4, !tbaa !10
  %53 = call i64 @hwloc_bitmap_to_ith_ulong(ptr noundef %51, i32 noundef %52) #17
  %54 = load ptr, ptr %11, align 8, !tbaa !14
  %55 = load i32, ptr %12, align 4, !tbaa !10
  %56 = zext i32 %55 to i64
  %57 = getelementptr inbounds nuw i64, ptr %54, i64 %56
  store i64 %53, ptr %57, align 8, !tbaa !12
  br label %58

58:                                               ; preds = %50
  %59 = load i32, ptr %12, align 4, !tbaa !10
  %60 = add i32 %59, 1
  store i32 %60, ptr %12, align 4, !tbaa !10
  br label %45, !llvm.loop !122

61:                                               ; preds = %45
  %62 = load ptr, ptr %13, align 8, !tbaa !8
  %63 = icmp ne ptr %62, null
  br i1 %63, label %64, label %66

64:                                               ; preds = %61
  %65 = load ptr, ptr %13, align 8, !tbaa !8
  call void @hwloc_bitmap_free(ptr noundef %65)
  br label %66

66:                                               ; preds = %64, %61
  %67 = load i32, ptr %10, align 4, !tbaa !10
  %68 = load ptr, ptr %8, align 8, !tbaa !91
  store i32 %67, ptr %68, align 4, !tbaa !10
  %69 = load ptr, ptr %11, align 8, !tbaa !14
  %70 = load ptr, ptr %9, align 8, !tbaa !120
  store ptr %69, ptr %70, align 8, !tbaa !14
  store i32 0, ptr %5, align 4
  store i32 1, ptr %14, align 4
  br label %71

71:                                               ; preds = %66, %41
  call void @llvm.lifetime.end.p0(i64 8, ptr %13) #14
  call void @llvm.lifetime.end.p0(i64 4, ptr %12) #14
  call void @llvm.lifetime.end.p0(i64 8, ptr %11) #14
  call void @llvm.lifetime.end.p0(i64 4, ptr %10) #14
  %72 = load i32, ptr %5, align 4
  ret i32 %72
}