; Function Attrs: nounwind uwtable
define internal fastcc range(i32 -1, 1) i32 @hwloc_linux_membind_mask_from_nodeset(ptr noundef %0, ptr noundef nonnull writeonly captures(none) %1, ptr noundef nonnull writeonly captures(none) %2) unnamed_addr #0 {
  %4 = tail call i32 @hwloc_bitmap_isfull(ptr noundef %0) #30
  %.not = icmp eq i32 %4, 0
  br i1 %.not, label %8, label %5

5:                                                ; preds = %3
  %6 = tail call noalias ptr @hwloc_bitmap_alloc() #27
  %7 = tail call i32 @hwloc_bitmap_only(ptr noundef %6, i32 noundef 0) #27
  br label %8

8:                                                ; preds = %5, %3
  %.024 = phi ptr [ %6, %5 ], [ %0, %3 ]
  %.0 = phi ptr [ %6, %5 ], [ null, %3 ]
  %9 = tail call i32 @hwloc_bitmap_last(ptr noundef %.024) #30
  %10 = icmp eq i32 %9, -1
  %11 = and i32 %9, -64
  %12 = add i32 %11, 64
  %13 = select i1 %10, i32 64, i32 %12
  %14 = lshr exact i32 %13, 6
  %15 = zext nneg i32 %14 to i64
  %16 = tail call noalias ptr @calloc(i64 noundef %15, i64 noundef 8) #32
  %.not26 = icmp eq ptr %16, null
  br i1 %.not26, label %17, label %.preheader

.preheader:                                       ; preds = %8
  %.not2 = icmp eq i32 %13, 0
  br i1 %.not2, label %._crit_edge, label %.lr.ph.preheader

.lr.ph.preheader:                                 ; preds = %.preheader
  %umax = tail call i32 @llvm.umax.i32(i32 %14, i32 1)
  %wide.trip.count = zext nneg i32 %umax to i64
  br label %.lr.ph

17:                                               ; preds = %8
  tail call void @hwloc_bitmap_free(ptr noundef %.0) #27
  %18 = tail call ptr @__errno_location() #31
  store i32 12, ptr %18, align 4, !tbaa !3
  br label %24

.lr.ph:                                           ; preds = %.lr.ph.preheader, %.lr.ph
  %indvars.iv = phi i64 [ 0, %.lr.ph.preheader ], [ %indvars.iv.next, %.lr.ph ]
  %19 = trunc nuw nsw i64 %indvars.iv to i32
  %20 = tail call i64 @hwloc_bitmap_to_ith_ulong(ptr noundef %.024, i32 noundef %19) #30
  %21 = getelementptr inbounds nuw i64, ptr %16, i64 %indvars.iv
  store i64 %20, ptr %21, align 8, !tbaa !10
  %indvars.iv.next = add nuw nsw i64 %indvars.iv, 1
  %exitcond.not = icmp eq i64 %indvars.iv.next, %wide.trip.count
  br i1 %exitcond.not, label %._crit_edge, label %.lr.ph, !llvm.loop !98

._crit_edge:                                      ; preds = %.lr.ph, %.preheader
  %.not27 = icmp eq ptr %.0, null
  br i1 %.not27, label %23, label %22

22:                                               ; preds = %._crit_edge
  tail call void @hwloc_bitmap_free(ptr noundef nonnull %.0) #27
  br label %23

23:                                               ; preds = %22, %._crit_edge
  store i32 %13, ptr %1, align 4, !tbaa !3
  store ptr %16, ptr %2, align 8, !tbaa !84
  br label %24

24:                                               ; preds = %23, %17
  %.023 = phi i32 [ 0, %23 ], [ -1, %17 ]
  ret i32 %.023
}